target datalayout = "e-m:e-p270:32:32-p271:32:32-p272:64:64-i64:64-i128:128-f80:128-n8:16:32:64-S128"
target triple = "x86_64-pc-linux-gnu"

%struct.jv = type { i8, i8, i16, i32, %union.anon }
%union.anon = type { ptr }
%struct.jv_refcnt = type { i32 }
%struct.decNumber = type { i32, i32, i8, [1 x i16] }
%struct.jvp_literal_number = type { %struct.jv_refcnt, double, ptr, %struct.decNumber }

; Function Attrs: nounwind uwtable
define internal ptr @jvp_literal_number_ptr(i64 %0, ptr %1) #0 {
  %3 = alloca %struct.jv, align 8
  %4 = getelementptr inbounds nuw { i64, ptr }, ptr %3, i32 0, i32 0
  store i64 %0, ptr %4, align 8
  %5 = getelementptr inbounds nuw { i64, ptr }, ptr %3, i32 0, i32 1
  store ptr %1, ptr %5, align 8
  %6 = getelementptr inbounds nuw %struct.jv, ptr %3, i32 0, i32 4
  %7 = load ptr, ptr %6, align 8, !tbaa !12
  ret ptr %7
}

; Function Attrs: nounwind uwtable
define dso_local double @jv_number_value(i64 %0, ptr %1) #0 {
  %3 = alloca double, align 8
  %4 = alloca %struct.jv, align 8
  %5 = alloca ptr, align 8
  %6 = getelementptr inbounds nuw { i64, ptr }, ptr %4, i32 0, i32 0
  store i64 %0, ptr %6, align 8
  %7 = getelementptr inbounds nuw { i64, ptr }, ptr %4, i32 0, i32 1
  store ptr %1, ptr %7, align 8
  %8 = getelementptr inbounds nuw %struct.jv, ptr %4, i32 0, i32 0
  %9 = load i8, ptr %8, align 8, !tbaa !4
  %10 = zext i8 %9 to i32
  %11 = icmp eq i32 %10, 148
  br i1 %11, label %12, label %34

12:                                               ; preds = %2
  call void @llvm.lifetime.start.p0(i64 8, ptr %5) #11
  %13 = getelementptr inbounds nuw { i64, ptr }, ptr %4, i32 0, i32 0
  %14 = load i64, ptr %13, align 8
  %15 = getelementptr inbounds nuw { i64, ptr }, ptr %4, i32 0, i32 1
  %16 = load ptr, ptr %15, align 8
  %17 = call ptr @jvp_literal_number_ptr(i64 %14, ptr %16)
  store ptr %17, ptr %5, align 8, !tbaa !14
  %18 = load ptr, ptr %5, align 8, !tbaa !14
  %19 = getelementptr inbounds nuw %struct.jvp_literal_number, ptr %18, i32 0, i32 1
  %20 = load double, ptr %19, align 8, !tbaa !35
  %21 = call i1 @llvm.is.fpclass.f64(double %20, i32 3)
  br i1 %21, label %22, label %30

22:                                               ; preds = %12
  %23 = getelementptr inbounds nuw { i64, ptr }, ptr %4, i32 0, i32 0
  %24 = load i64, ptr %23, align 8
  %25 = getelementptr inbounds nuw { i64, ptr }, ptr %4, i32 0, i32 1
  %26 = load ptr, ptr %25, align 8
  %27 = call double @jvp_literal_number_to_double(i64 %24, ptr %26)
  %28 = load ptr, ptr %5, align 8, !tbaa !14
  %29 = getelementptr inbounds nuw %struct.jvp_literal_number, ptr %28, i32 0, i32 1
  store double %27, ptr %29, align 8, !tbaa !35
  br label %30

30:                                               ; preds = %22, %12
  %31 = load ptr, ptr %5, align 8, !tbaa !14
  %32 = getelementptr inbounds nuw %struct.jvp_literal_number, ptr %31, i32 0, i32 1
  %33 = load double, ptr %32, align 8, !tbaa !35
  store double %33, ptr %3, align 8
  call void @llvm.lifetime.end.p0(i64 8, ptr %5) #11
  br label %37

34:                                               ; preds = %2
  %35 = getelementptr inbounds nuw %struct.jv, ptr %4, i32 0, i32 4
  %36 = load double, ptr %35, align 8, !tbaa !12
  store double %36, ptr %3, align 8
  br label %37

37:                                               ; preds = %34, %30
  %38 = load double, ptr %3, align 8
  ret double %38
}

; Function Attrs: nounwind uwtable
define dso_local i32 @jv_is_integer(i64 %0, ptr %1) #0 {
  %3 = alloca i32, align 4
  %4 = alloca %struct.jv, align 8
  %5 = alloca double, align 8
  %6 = alloca double, align 8
  %7 = alloca double, align 8
  %8 = getelementptr inbounds nuw { i64, ptr }, ptr %4, i32 0, i32 0
  store i64 %0, ptr %8, align 8
  %9 = getelementptr inbounds nuw { i64, ptr }, ptr %4, i32 0, i32 1
  store ptr %1, ptr %9, align 8
  %10 = getelementptr inbounds nuw %struct.jv, ptr %4, i32 0, i32 0
  %11 = load i8, ptr %10, align 8, !tbaa !4
  %12 = zext i8 %11 to i32
  %13 = and i32 %12, 15
  %14 = icmp eq i32 %13, 4
  br i1 %14, label %16, label %15

15:                                               ; preds = %2
  store i32 0, ptr %3, align 4
  br label %28

16:                                               ; preds = %2
  call void @llvm.lifetime.start.p0(i64 8, ptr %5) #11
  %17 = getelementptr inbounds nuw { i64, ptr }, ptr %4, i32 0, i32 0
  %18 = load i64, ptr %17, align 8
  %19 = getelementptr inbounds nuw { i64, ptr }, ptr %4, i32 0, i32 1
  %20 = load ptr, ptr %19, align 8
  %21 = call double @jv_number_value(i64 %18, ptr %20)
  store double %21, ptr %5, align 8, !tbaa !34
  call void @llvm.lifetime.start.p0(i64 8, ptr %6) #11
  call void @llvm.lifetime.start.p0(i64 8, ptr %7) #11
  %22 = load double, ptr %5, align 8, !tbaa !34
  %23 = call double @modf(double noundef %22, ptr noundef %6) #11
  store double %23, ptr %7, align 8, !tbaa !34
  %24 = load double, ptr %7, align 8, !tbaa !34
  %25 = call double @llvm.fabs.f64(double %24)
  %26 = fcmp olt double %25, 0x3CB0000000000000
  %27 = zext i1 %26 to i32
  store i32 %27, ptr %3, align 4
  call void @llvm.lifetime.end.p0(i64 8, ptr %7) #11
  call void @llvm.lifetime.end.p0(i64 8, ptr %6) #11
  call void @llvm.lifetime.end.p0(i64 8, ptr %5) #11
  br label %28

28:                                               ; preds = %16, %15
  %29 = load i32, ptr %3, align 4
  ret i32 %29
}