; Function Attrs: nounwind uwtable
define dso_local range(i32 0, 2) i32 @jv_is_integer(i64 %0, ptr %1) local_unnamed_addr #2 {
  %3 = alloca double, align 8
  %4 = and i64 %0, 15
  %5 = icmp eq i64 %4, 4
  br i1 %5, label %6, label %22

6:                                                ; preds = %2
  %7 = and i64 %0, 244
  %8 = icmp eq i64 %7, 148
  br i1 %8, label %9, label %15

9:                                                ; preds = %6
  %10 = getelementptr inbounds nuw i8, ptr %1, i64 8
  %11 = load double, ptr %10, align 8, !tbaa !24
  %12 = fcmp uno double %11, 0.000000e+00
  br i1 %12, label %13, label %jv_number_value.exit

13:                                               ; preds = %9
  %14 = tail call fastcc double @jvp_literal_number_to_double(ptr nonnull %1)
  store double %14, ptr %10, align 8, !tbaa !24
  br label %jv_number_value.exit

15:                                               ; preds = %6
  %16 = ptrtoint ptr %1 to i64
  %17 = bitcast i64 %16 to double
  br label %jv_number_value.exit

jv_number_value.exit:                             ; preds = %9, %13, %15
  %.0.i = phi double [ %17, %15 ], [ %14, %13 ], [ %11, %9 ]
  call void @llvm.lifetime.start.p0(i64 8, ptr nonnull %3) #25
  %18 = call double @modf(double noundef %.0.i, ptr noundef nonnull %3) #25
  %19 = tail call double @llvm.fabs.f64(double %18)
  %20 = fcmp olt double %19, 0x3CB0000000000000
  %21 = zext i1 %20 to i32
  call void @llvm.lifetime.end.p0(i64 8, ptr nonnull %3) #25
  br label %22

22:                                               ; preds = %2, %jv_number_value.exit
  %.0 = phi i32 [ %21, %jv_number_value.exit ], [ 0, %2 ]
  ret i32 %.0
}